target datalayout = "e-m:e-p270:32:32-p271:32:32-p272:64:64-i64:64-i128:128-f80:128-n8:16:32:64-S128"
target triple = "x86_64-pc-linux-gnu"

; Function Attrs: alwaysinline nounwind uwtable
define internal void @_mm_store_ps(ptr noundef %0, <4 x float> noundef %1) #3 {
  %3 = alloca ptr, align 8
  %4 = alloca <4 x float>, align 16
  store ptr %0, ptr %3, align 8, !tbaa !21
  store <4 x float> %1, ptr %4, align 16, !tbaa !10
  %5 = load <4 x float>, ptr %4, align 16, !tbaa !10
  %6 = load ptr, ptr %3, align 8, !tbaa !21
  store <4 x float> %5, ptr %6, align 16, !tbaa !10
  ret void
}

; Function Attrs: alwaysinline nounwind uwtable
define internal <4 x float> @_mm_add_ps(<4 x float> noundef %0, <4 x float> noundef %1) #3 {
  %3 = alloca <4 x float>, align 16
  %4 = alloca <4 x float>, align 16
  store <4 x float> %0, ptr %3, align 16, !tbaa !10
  store <4 x float> %1, ptr %4, align 16, !tbaa !10
  %5 = load <4 x float>, ptr %3, align 16, !tbaa !10
  %6 = load <4 x float>, ptr %4, align 16, !tbaa !10
  %7 = fadd <4 x float> %5, %6
  ret <4 x float> %7
}

; Function Attrs: alwaysinline nounwind uwtable
define internal <4 x float> @_mm_mul_ps(<4 x float> noundef %0, <4 x float> noundef %1) #3 {
  %3 = alloca <4 x float>, align 16
  %4 = alloca <4 x float>, align 16
  store <4 x float> %0, ptr %3, align 16, !tbaa !10
  store <4 x float> %1, ptr %4, align 16, !tbaa !10
  %5 = load <4 x float>, ptr %3, align 16, !tbaa !10
  %6 = load <4 x float>, ptr %4, align 16, !tbaa !10
  %7 = fmul <4 x float> %5, %6
  ret <4 x float> %7
}

; Function Attrs: alwaysinline nounwind uwtable
define internal <4 x float> @_mm_load_ps(ptr noundef %0) #3 {
  %2 = alloca ptr, align 8
  store ptr %0, ptr %2, align 8, !tbaa !21
  %3 = load ptr, ptr %2, align 8, !tbaa !21
  %4 = load <4 x float>, ptr %3, align 16, !tbaa !10
  ret <4 x float> %4
}

; Function Attrs: alwaysinline nounwind uwtable
define internal <4 x float> @_mm_set1_ps(float noundef %0) #3 {
  %2 = alloca float, align 4
  %3 = alloca <4 x float>, align 16
  store float %0, ptr %2, align 4, !tbaa !24
  %4 = load float, ptr %2, align 4, !tbaa !24
  %5 = insertelement <4 x float> poison, float %4, i32 0
  %6 = load float, ptr %2, align 4, !tbaa !24
  %7 = insertelement <4 x float> %5, float %6, i32 1
  %8 = load float, ptr %2, align 4, !tbaa !24
  %9 = insertelement <4 x float> %7, float %8, i32 2
  %10 = load float, ptr %2, align 4, !tbaa !24
  %11 = insertelement <4 x float> %9, float %10, i32 3
  store <4 x float> %11, ptr %3, align 16, !tbaa !10
  %12 = load <4 x float>, ptr %3, align 16, !tbaa !10
  ret <4 x float> %12
}

; Function Attrs: nounwind uwtable
define hidden void @opj_mct_encode_real(ptr noalias noundef %0, ptr noalias noundef %1, ptr noalias noundef %2, i64 noundef %3) #1 {
  %5 = alloca ptr, align 8
  %6 = alloca ptr, align 8
  %7 = alloca ptr, align 8
  %8 = alloca i64, align 8
  %9 = alloca i64, align 8
  %10 = alloca <4 x float>, align 16
  %11 = alloca <4 x float>, align 16
  %12 = alloca <4 x float>, align 16
  %13 = alloca <4 x float>, align 16
  %14 = alloca <4 x float>, align 16
  %15 = alloca <4 x float>, align 16
  %16 = alloca <4 x float>, align 16
  %17 = alloca <4 x float>, align 16
  %18 = alloca <4 x float>, align 16
  %19 = alloca <4 x float>, align 16
  %20 = alloca <4 x float>, align 16
  %21 = alloca <4 x float>, align 16
  %22 = alloca <4 x float>, align 16
  %23 = alloca <4 x float>, align 16
  %24 = alloca <4 x float>, align 16
  %25 = alloca float, align 4
  %26 = alloca float, align 4
  %27 = alloca float, align 4
  %28 = alloca float, align 4
  %29 = alloca float, align 4
  %30 = alloca float, align 4
  store ptr %0, ptr %5, align 8, !tbaa !21
  store ptr %1, ptr %6, align 8, !tbaa !21
  store ptr %2, ptr %7, align 8, !tbaa !21
  store i64 %3, ptr %8, align 8, !tbaa !8
  call void @llvm.lifetime.start.p0(i64 8, ptr %9) #9
  call void @llvm.lifetime.start.p0(i64 16, ptr %10) #9
  %31 = call <4 x float> @_mm_set1_ps(float noundef 0x3FD322D0E0000000)
  store <4 x float> %31, ptr %10, align 16, !tbaa !10
  call void @llvm.lifetime.start.p0(i64 16, ptr %11) #9
  %32 = call <4 x float> @_mm_set1_ps(float noundef 0x3FE2C8B440000000)
  store <4 x float> %32, ptr %11, align 16, !tbaa !10
  call void @llvm.lifetime.start.p0(i64 16, ptr %12) #9
  %33 = call <4 x float> @_mm_set1_ps(float noundef 0x3FBD2F1AA0000000)
  store <4 x float> %33, ptr %12, align 16, !tbaa !10
  call void @llvm.lifetime.start.p0(i64 16, ptr %13) #9
  %34 = call <4 x float> @_mm_set1_ps(float noundef 0xBFC59999A0000000)
  store <4 x float> %34, ptr %13, align 16, !tbaa !10
  call void @llvm.lifetime.start.p0(i64 16, ptr %14) #9
  %35 = call <4 x float> @_mm_set1_ps(float noundef 0xBFD5335D20000000)
  store <4 x float> %35, ptr %14, align 16, !tbaa !10
  call void @llvm.lifetime.start.p0(i64 16, ptr %15) #9
  %36 = call <4 x float> @_mm_set1_ps(float noundef 5.000000e-01)
  store <4 x float> %36, ptr %15, align 16, !tbaa !10
  call void @llvm.lifetime.start.p0(i64 16, ptr %16) #9
  %37 = call <4 x float> @_mm_set1_ps(float noundef 5.000000e-01)
  store <4 x float> %37, ptr %16, align 16, !tbaa !10
  call void @llvm.lifetime.start.p0(i64 16, ptr %17) #9
  %38 = call <4 x float> @_mm_set1_ps(float noundef 0xBFDACBD120000000)
  store <4 x float> %38, ptr %17, align 16, !tbaa !10
  call void @llvm.lifetime.start.p0(i64 16, ptr %18) #9
  %39 = call <4 x float> @_mm_set1_ps(float noundef 0xBFB4D0BB60000000)
  store <4 x float> %39, ptr %18, align 16, !tbaa !10
  store i64 0, ptr %9, align 8, !tbaa !8
  br label %40

40:                                               ; preds = %148, %4
  %41 = load i64, ptr %9, align 8, !tbaa !8
  %42 = load i64, ptr %8, align 8, !tbaa !8
  %43 = lshr i64 %42, 3
  %44 = icmp ult i64 %41, %43
  br i1 %44, label %45, label %151

45:                                               ; preds = %40
  call void @llvm.lifetime.start.p0(i64 16, ptr %19) #9
  call void @llvm.lifetime.start.p0(i64 16, ptr %20) #9
  call void @llvm.lifetime.start.p0(i64 16, ptr %21) #9
  call void @llvm.lifetime.start.p0(i64 16, ptr %22) #9
  call void @llvm.lifetime.start.p0(i64 16, ptr %23) #9
  call void @llvm.lifetime.start.p0(i64 16, ptr %24) #9
  %46 = load ptr, ptr %5, align 8, !tbaa !21
  %47 = call <4 x float> @_mm_load_ps(ptr noundef %46)
  store <4 x float> %47, ptr %19, align 16, !tbaa !10
  %48 = load ptr, ptr %6, align 8, !tbaa !21
  %49 = call <4 x float> @_mm_load_ps(ptr noundef %48)
  store <4 x float> %49, ptr %20, align 16, !tbaa !10
  %50 = load ptr, ptr %7, align 8, !tbaa !21
  %51 = call <4 x float> @_mm_load_ps(ptr noundef %50)
  store <4 x float> %51, ptr %21, align 16, !tbaa !10
  %52 = load <4 x float>, ptr %19, align 16, !tbaa !10
  %53 = load <4 x float>, ptr %10, align 16, !tbaa !10
  %54 = call <4 x float> @_mm_mul_ps(<4 x float> noundef %52, <4 x float> noundef %53)
  %55 = load <4 x float>, ptr %20, align 16, !tbaa !10
  %56 = load <4 x float>, ptr %11, align 16, !tbaa !10
  %57 = call <4 x float> @_mm_mul_ps(<4 x float> noundef %55, <4 x float> noundef %56)
  %58 = call <4 x float> @_mm_add_ps(<4 x float> noundef %54, <4 x float> noundef %57)
  %59 = load <4 x float>, ptr %21, align 16, !tbaa !10
  %60 = load <4 x float>, ptr %12, align 16, !tbaa !10
  %61 = call <4 x float> @_mm_mul_ps(<4 x float> noundef %59, <4 x float> noundef %60)
  %62 = call <4 x float> @_mm_add_ps(<4 x float> noundef %58, <4 x float> noundef %61)
  store <4 x float> %62, ptr %22, align 16, !tbaa !10
  %63 = load <4 x float>, ptr %19, align 16, !tbaa !10
  %64 = load <4 x float>, ptr %13, align 16, !tbaa !10
  %65 = call <4 x float> @_mm_mul_ps(<4 x float> noundef %63, <4 x float> noundef %64)
  %66 = load <4 x float>, ptr %20, align 16, !tbaa !10
  %67 = load <4 x float>, ptr %14, align 16, !tbaa !10
  %68 = call <4 x float> @_mm_mul_ps(<4 x float> noundef %66, <4 x float> noundef %67)
  %69 = call <4 x float> @_mm_add_ps(<4 x float> noundef %65, <4 x float> noundef %68)
  %70 = load <4 x float>, ptr %21, align 16, !tbaa !10
  %71 = load <4 x float>, ptr %15, align 16, !tbaa !10
  %72 = call <4 x float> @_mm_mul_ps(<4 x float> noundef %70, <4 x float> noundef %71)
  %73 = call <4 x float> @_mm_add_ps(<4 x float> noundef %69, <4 x float> noundef %72)
  store <4 x float> %73, ptr %23, align 16, !tbaa !10
  %74 = load <4 x float>, ptr %19, align 16, !tbaa !10
  %75 = load <4 x float>, ptr %16, align 16, !tbaa !10
  %76 = call <4 x float> @_mm_mul_ps(<4 x float> noundef %74, <4 x float> noundef %75)
  %77 = load <4 x float>, ptr %20, align 16, !tbaa !10
  %78 = load <4 x float>, ptr %17, align 16, !tbaa !10
  %79 = call <4 x float> @_mm_mul_ps(<4 x float> noundef %77, <4 x float> noundef %78)
  %80 = call <4 x float> @_mm_add_ps(<4 x float> noundef %76, <4 x float> noundef %79)
  %81 = load <4 x float>, ptr %21, align 16, !tbaa !10
  %82 = load <4 x float>, ptr %18, align 16, !tbaa !10
  %83 = call <4 x float> @_mm_mul_ps(<4 x float> noundef %81, <4 x float> noundef %82)
  %84 = call <4 x float> @_mm_add_ps(<4 x float> noundef %80, <4 x float> noundef %83)
  store <4 x float> %84, ptr %24, align 16, !tbaa !10
  %85 = load ptr, ptr %5, align 8, !tbaa !21
  %86 = load <4 x float>, ptr %22, align 16, !tbaa !10
  call void @_mm_store_ps(ptr noundef %85, <4 x float> noundef %86)
  %87 = load ptr, ptr %6, align 8, !tbaa !21
  %88 = load <4 x float>, ptr %23, align 16, !tbaa !10
  call void @_mm_store_ps(ptr noundef %87, <4 x float> noundef %88)
  %89 = load ptr, ptr %7, align 8, !tbaa !21
  %90 = load <4 x float>, ptr %24, align 16, !tbaa !10
  call void @_mm_store_ps(ptr noundef %89, <4 x float> noundef %90)
  %91 = load ptr, ptr %5, align 8, !tbaa !21
  %92 = getelementptr inbounds float, ptr %91, i64 4
  store ptr %92, ptr %5, align 8, !tbaa !21
  %93 = load ptr, ptr %6, align 8, !tbaa !21
  %94 = getelementptr inbounds float, ptr %93, i64 4
  store ptr %94, ptr %6, align 8, !tbaa !21
  %95 = load ptr, ptr %7, align 8, !tbaa !21
  %96 = getelementptr inbounds float, ptr %95, i64 4
  store ptr %96, ptr %7, align 8, !tbaa !21
  %97 = load ptr, ptr %5, align 8, !tbaa !21
  %98 = call <4 x float> @_mm_load_ps(ptr noundef %97)
  store <4 x float> %98, ptr %19, align 16, !tbaa !10
  %99 = load ptr, ptr %6, align 8, !tbaa !21
  %100 = call <4 x float> @_mm_load_ps(ptr noundef %99)
  store <4 x float> %100, ptr %20, align 16, !tbaa !10
  %101 = load ptr, ptr %7, align 8, !tbaa !21
  %102 = call <4 x float> @_mm_load_ps(ptr noundef %101)
  store <4 x float> %102, ptr %21, align 16, !tbaa !10
  %103 = load <4 x float>, ptr %19, align 16, !tbaa !10
  %104 = load <4 x float>, ptr %10, align 16, !tbaa !10
  %105 = call <4 x float> @_mm_mul_ps(<4 x float> noundef %103, <4 x float> noundef %104)
  %106 = load <4 x float>, ptr %20, align 16, !tbaa !10
  %107 = load <4 x float>, ptr %11, align 16, !tbaa !10
  %108 = call <4 x float> @_mm_mul_ps(<4 x float> noundef %106, <4 x float> noundef %107)
  %109 = call <4 x float> @_mm_add_ps(<4 x float> noundef %105, <4 x float> noundef %108)
  %110 = load <4 x float>, ptr %21, align 16, !tbaa !10
  %111 = load <4 x float>, ptr %12, align 16, !tbaa !10
  %112 = call <4 x float> @_mm_mul_ps(<4 x float> noundef %110, <4 x float> noundef %111)
  %113 = call <4 x float> @_mm_add_ps(<4 x float> noundef %109, <4 x float> noundef %112)
  store <4 x float> %113, ptr %22, align 16, !tbaa !10
  %114 = load <4 x float>, ptr %19, align 16, !tbaa !10
  %115 = load <4 x float>, ptr %13, align 16, !tbaa !10
  %116 = call <4 x float> @_mm_mul_ps(<4 x float> noundef %114, <4 x float> noundef %115)
  %117 = load <4 x float>, ptr %20, align 16, !tbaa !10
  %118 = load <4 x float>, ptr %14, align 16, !tbaa !10
  %119 = call <4 x float> @_mm_mul_ps(<4 x float> noundef %117, <4 x float> noundef %118)
  %120 = call <4 x float> @_mm_add_ps(<4 x float> noundef %116, <4 x float> noundef %119)
  %121 = load <4 x float>, ptr %21, align 16, !tbaa !10
  %122 = load <4 x float>, ptr %15, align 16, !tbaa !10
  %123 = call <4 x float> @_mm_mul_ps(<4 x float> noundef %121, <4 x float> noundef %122)
  %124 = call <4 x float> @_mm_add_ps(<4 x float> noundef %120, <4 x float> noundef %123)
  store <4 x float> %124, ptr %23, align 16, !tbaa !10
  %125 = load <4 x float>, ptr %19, align 16, !tbaa !10
  %126 = load <4 x float>, ptr %16, align 16, !tbaa !10
  %127 = call <4 x float> @_mm_mul_ps(<4 x float> noundef %125, <4 x float> noundef %126)
  %128 = load <4 x float>, ptr %20, align 16, !tbaa !10
  %129 = load <4 x float>, ptr %17, align 16, !tbaa !10
  %130 = call <4 x float> @_mm_mul_ps(<4 x float> noundef %128, <4 x float> noundef %129)
  %131 = call <4 x float> @_mm_add_ps(<4 x float> noundef %127, <4 x float> noundef %130)
  %132 = load <4 x float>, ptr %21, align 16, !tbaa !10
  %133 = load <4 x float>, ptr %18, align 16, !tbaa !10
  %134 = call <4 x float> @_mm_mul_ps(<4 x float> noundef %132, <4 x float> noundef %133)
  %135 = call <4 x float> @_mm_add_ps(<4 x float> noundef %131, <4 x float> noundef %134)
  store <4 x float> %135, ptr %24, align 16, !tbaa !10
  %136 = load ptr, ptr %5, align 8, !tbaa !21
  %137 = load <4 x float>, ptr %22, align 16, !tbaa !10
  call void @_mm_store_ps(ptr noundef %136, <4 x float> noundef %137)
  %138 = load ptr, ptr %6, align 8, !tbaa !21
  %139 = load <4 x float>, ptr %23, align 16, !tbaa !10
  call void @_mm_store_ps(ptr noundef %138, <4 x float> noundef %139)
  %140 = load ptr, ptr %7, align 8, !tbaa !21
  %141 = load <4 x float>, ptr %24, align 16, !tbaa !10
  call void @_mm_store_ps(ptr noundef %140, <4 x float> noundef %141)
  %142 = load ptr, ptr %5, align 8, !tbaa !21
  %143 = getelementptr inbounds float, ptr %142, i64 4
  store ptr %143, ptr %5, align 8, !tbaa !21
  %144 = load ptr, ptr %6, align 8, !tbaa !21
  %145 = getelementptr inbounds float, ptr %144, i64 4
  store ptr %145, ptr %6, align 8, !tbaa !21
  %146 = load ptr, ptr %7, align 8, !tbaa !21
  %147 = getelementptr inbounds float, ptr %146, i64 4
  store ptr %147, ptr %7, align 8, !tbaa !21
  call void @llvm.lifetime.end.p0(i64 16, ptr %24) #9
  call void @llvm.lifetime.end.p0(i64 16, ptr %23) #9
  call void @llvm.lifetime.end.p0(i64 16, ptr %22) #9
  call void @llvm.lifetime.end.p0(i64 16, ptr %21) #9
  call void @llvm.lifetime.end.p0(i64 16, ptr %20) #9
  call void @llvm.lifetime.end.p0(i64 16, ptr %19) #9
  br label %148

148:                                              ; preds = %45
  %149 = load i64, ptr %9, align 8, !tbaa !8
  %150 = add i64 %149, 1
  store i64 %150, ptr %9, align 8, !tbaa !8
  br label %40, !llvm.loop !23

151:                                              ; preds = %40
  %152 = load i64, ptr %8, align 8, !tbaa !8
  %153 = and i64 %152, 7
  store i64 %153, ptr %8, align 8, !tbaa !8
  store i64 0, ptr %9, align 8, !tbaa !8
  br label %154

154:                                              ; preds = %203, %151
  %155 = load i64, ptr %9, align 8, !tbaa !8
  %156 = load i64, ptr %8, align 8, !tbaa !8
  %157 = icmp ult i64 %155, %156
  br i1 %157, label %158, label %206

158:                                              ; preds = %154
  call void @llvm.lifetime.start.p0(i64 4, ptr %25) #9
  %159 = load ptr, ptr %5, align 8, !tbaa !21
  %160 = load i64, ptr %9, align 8, !tbaa !8
  %161 = getelementptr inbounds nuw float, ptr %159, i64 %160
  %162 = load float, ptr %161, align 4, !tbaa !24
  store float %162, ptr %25, align 4, !tbaa !24
  call void @llvm.lifetime.start.p0(i64 4, ptr %26) #9
  %163 = load ptr, ptr %6, align 8, !tbaa !21
  %164 = load i64, ptr %9, align 8, !tbaa !8
  %165 = getelementptr inbounds nuw float, ptr %163, i64 %164
  %166 = load float, ptr %165, align 4, !tbaa !24
  store float %166, ptr %26, align 4, !tbaa !24
  call void @llvm.lifetime.start.p0(i64 4, ptr %27) #9
  %167 = load ptr, ptr %7, align 8, !tbaa !21
  %168 = load i64, ptr %9, align 8, !tbaa !8
  %169 = getelementptr inbounds nuw float, ptr %167, i64 %168
  %170 = load float, ptr %169, align 4, !tbaa !24
  store float %170, ptr %27, align 4, !tbaa !24
  call void @llvm.lifetime.start.p0(i64 4, ptr %28) #9
  %171 = load float, ptr %25, align 4, !tbaa !24
  %172 = load float, ptr %26, align 4, !tbaa !24
  %173 = fmul float 0x3FE2C8B440000000, %172
  %174 = call float @llvm.fmuladd.f32(float 0x3FD322D0E0000000, float %171, float %173)
  %175 = load float, ptr %27, align 4, !tbaa !24
  %176 = call float @llvm.fmuladd.f32(float 0x3FBD2F1AA0000000, float %175, float %174)
  store float %176, ptr %28, align 4, !tbaa !24
  call void @llvm.lifetime.start.p0(i64 4, ptr %29) #9
  %177 = load float, ptr %25, align 4, !tbaa !24
  %178 = load float, ptr %26, align 4, !tbaa !24
  %179 = fmul float 0x3FD5335D20000000, %178
  %180 = fneg float %179
  %181 = call float @llvm.fmuladd.f32(float 0xBFC59999A0000000, float %177, float %180)
  %182 = load float, ptr %27, align 4, !tbaa !24
  %183 = call float @llvm.fmuladd.f32(float 5.000000e-01, float %182, float %181)
  store float %183, ptr %29, align 4, !tbaa !24
  call void @llvm.lifetime.start.p0(i64 4, ptr %30) #9
  %184 = load float, ptr %25, align 4, !tbaa !24
  %185 = load float, ptr %26, align 4, !tbaa !24
  %186 = fmul float 0x3FDACBD120000000, %185
  %187 = fneg float %186
  %188 = call float @llvm.fmuladd.f32(float 5.000000e-01, float %184, float %187)
  %189 = load float, ptr %27, align 4, !tbaa !24
  %190 = call float @llvm.fmuladd.f32(float 0xBFB4D0BB60000000, float %189, float %188)
  store float %190, ptr %30, align 4, !tbaa !24
  %191 = load float, ptr %28, align 4, !tbaa !24
  %192 = load ptr, ptr %5, align 8, !tbaa !21
  %193 = load i64, ptr %9, align 8, !tbaa !8
  %194 = getelementptr inbounds nuw float, ptr %192, i64 %193
  store float %191, ptr %194, align 4, !tbaa !24
  %195 = load float, ptr %29, align 4, !tbaa !24
  %196 = load ptr, ptr %6, align 8, !tbaa !21
  %197 = load i64, ptr %9, align 8, !tbaa !8
  %198 = getelementptr inbounds nuw float, ptr %196, i64 %197
  store float %195, ptr %198, align 4, !tbaa !24
  %199 = load float, ptr %30, align 4, !tbaa !24
  %200 = load ptr, ptr %7, align 8, !tbaa !21
  %201 = load i64, ptr %9, align 8, !tbaa !8
  %202 = getelementptr inbounds nuw float, ptr %200, i64 %201
  store float %199, ptr %202, align 4, !tbaa !24
  call void @llvm.lifetime.end.p0(i64 4, ptr %30) #9
  call void @llvm.lifetime.end.p0(i64 4, ptr %29) #9
  call void @llvm.lifetime.end.p0(i64 4, ptr %28) #9
  call void @llvm.lifetime.end.p0(i64 4, ptr %27) #9
  call void @llvm.lifetime.end.p0(i64 4, ptr %26) #9
  call void @llvm.lifetime.end.p0(i64 4, ptr %25) #9
  br label %203

203:                                              ; preds = %158
  %204 = load i64, ptr %9, align 8, !tbaa !8
  %205 = add i64 %204, 1
  store i64 %205, ptr %9, align 8, !tbaa !8
  br label %154, !llvm.loop !26

206:                                              ; preds = %154
  call void @llvm.lifetime.end.p0(i64 16, ptr %18) #9
  call void @llvm.lifetime.end.p0(i64 16, ptr %17) #9
  call void @llvm.lifetime.end.p0(i64 16, ptr %16) #9
  call void @llvm.lifetime.end.p0(i64 16, ptr %15) #9
  call void @llvm.lifetime.end.p0(i64 16, ptr %14) #9
  call void @llvm.lifetime.end.p0(i64 16, ptr %13) #9
  call void @llvm.lifetime.end.p0(i64 16, ptr %12) #9
  call void @llvm.lifetime.end.p0(i64 16, ptr %11) #9
  call void @llvm.lifetime.end.p0(i64 16, ptr %10) #9
  call void @llvm.lifetime.end.p0(i64 8, ptr %9) #9
  ret void
}