; Function Attrs: nofree norecurse nosync nounwind memory(argmem: readwrite) uwtable
define hidden void @opj_mct_encode_real(ptr noalias noundef captures(none) %0, ptr noalias noundef captures(none) %1, ptr noalias noundef captures(none) %2, i64 noundef %3) local_unnamed_addr #1 {
  %5 = lshr i64 %3, 3
  %.not = icmp ult i64 %3, 8
  br i1 %.not, label %._crit_edge, label %.lr.ph

.lr.ph:                                           ; preds = %4, %.lr.ph
  %.096 = phi ptr [ %45, %.lr.ph ], [ %0, %4 ]
  %.09095 = phi ptr [ %46, %.lr.ph ], [ %1, %4 ]
  %.09194 = phi ptr [ %47, %.lr.ph ], [ %2, %4 ]
  %.09293 = phi i64 [ %48, %.lr.ph ], [ 0, %4 ]
  %6 = load <4 x float>, ptr %.096, align 16, !tbaa !3
  %7 = load <4 x float>, ptr %.09095, align 16, !tbaa !3
  %8 = load <4 x float>, ptr %.09194, align 16, !tbaa !3
  %9 = fmul <4 x float> %6, splat (float 0x3FD322D0E0000000)
  %10 = fmul <4 x float> %7, splat (float 0x3FE2C8B440000000)
  %11 = fadd <4 x float> %9, %10
  %12 = fmul <4 x float> %8, splat (float 0x3FBD2F1AA0000000)
  %13 = fadd <4 x float> %11, %12
  %14 = fmul <4 x float> %6, splat (float 0xBFC59999A0000000)
  %15 = fmul <4 x float> %7, splat (float 0x3FD5335D20000000)
  %16 = fsub <4 x float> %14, %15
  %17 = fmul <4 x float> %8, splat (float 5.000000e-01)
  %18 = fadd <4 x float> %16, %17
  %19 = fmul <4 x float> %6, splat (float 5.000000e-01)
  %20 = fmul <4 x float> %7, splat (float 0x3FDACBD120000000)
  %21 = fsub <4 x float> %19, %20
  %22 = fmul <4 x float> %8, splat (float 0x3FB4D0BB60000000)
  %23 = fsub <4 x float> %21, %22
  store <4 x float> %13, ptr %.096, align 16, !tbaa !3
  store <4 x float> %18, ptr %.09095, align 16, !tbaa !3
  store <4 x float> %23, ptr %.09194, align 16, !tbaa !3
  %24 = getelementptr inbounds nuw i8, ptr %.096, i64 16
  %25 = getelementptr inbounds nuw i8, ptr %.09095, i64 16
  %26 = getelementptr inbounds nuw i8, ptr %.09194, i64 16
  %27 = load <4 x float>, ptr %24, align 16, !tbaa !3
  %28 = load <4 x float>, ptr %25, align 16, !tbaa !3
  %29 = load <4 x float>, ptr %26, align 16, !tbaa !3
  %30 = fmul <4 x float> %27, splat (float 0x3FD322D0E0000000)
  %31 = fmul <4 x float> %28, splat (float 0x3FE2C8B440000000)
  %32 = fadd <4 x float> %30, %31
  %33 = fmul <4 x float> %29, splat (float 0x3FBD2F1AA0000000)
  %34 = fadd <4 x float> %32, %33
  %35 = fmul <4 x float> %27, splat (float 0xBFC59999A0000000)
  %36 = fmul <4 x float> %28, splat (float 0x3FD5335D20000000)
  %37 = fsub <4 x float> %35, %36
  %38 = fmul <4 x float> %29, splat (float 5.000000e-01)
  %39 = fadd <4 x float> %37, %38
  %40 = fmul <4 x float> %27, splat (float 5.000000e-01)
  %41 = fmul <4 x float> %28, splat (float 0x3FDACBD120000000)
  %42 = fsub <4 x float> %40, %41
  %43 = fmul <4 x float> %29, splat (float 0x3FB4D0BB60000000)
  %44 = fsub <4 x float> %42, %43
  store <4 x float> %34, ptr %24, align 16, !tbaa !3
  store <4 x float> %39, ptr %25, align 16, !tbaa !3
  store <4 x float> %44, ptr %26, align 16, !tbaa !3
  %45 = getelementptr inbounds nuw i8, ptr %.096, i64 32
  %46 = getelementptr inbounds nuw i8, ptr %.09095, i64 32
  %47 = getelementptr inbounds nuw i8, ptr %.09194, i64 32
  %48 = add nuw nsw i64 %.09293, 1
  %exitcond.not = icmp eq i64 %48, %5
  br i1 %exitcond.not, label %._crit_edge, label %.lr.ph, !llvm.loop !15

._crit_edge:                                      ; preds = %.lr.ph, %4
  %.091.lcssa = phi ptr [ %2, %4 ], [ %47, %.lr.ph ]
  %.090.lcssa = phi ptr [ %1, %4 ], [ %46, %.lr.ph ]
  %.0.lcssa = phi ptr [ %0, %4 ], [ %45, %.lr.ph ]
  %49 = and i64 %3, 7
  %.not103 = icmp eq i64 %49, 0
  br i1 %.not103, label %._crit_edge102, label %.lr.ph101

.lr.ph101:                                        ; preds = %._crit_edge, %.lr.ph101
  %.199 = phi i64 [ %65, %.lr.ph101 ], [ 0, %._crit_edge ]
  %50 = getelementptr inbounds nuw float, ptr %.0.lcssa, i64 %.199
  %51 = load float, ptr %50, align 4, !tbaa !16
  %52 = getelementptr inbounds nuw float, ptr %.090.lcssa, i64 %.199
  %53 = load float, ptr %52, align 4, !tbaa !16
  %54 = getelementptr inbounds nuw float, ptr %.091.lcssa, i64 %.199
  %55 = load float, ptr %54, align 4, !tbaa !16
  %56 = fmul float %53, 0x3FE2C8B440000000
  %57 = tail call float @llvm.fmuladd.f32(float %51, float 0x3FD322D0E0000000, float %56)
  %58 = tail call float @llvm.fmuladd.f32(float %55, float 0x3FBD2F1AA0000000, float %57)
  %59 = fmul float %53, 0xBFD5335D20000000
  %60 = tail call float @llvm.fmuladd.f32(float %51, float 0xBFC59999A0000000, float %59)
  %61 = tail call float @llvm.fmuladd.f32(float %55, float 5.000000e-01, float %60)
  %62 = fmul float %53, 0xBFDACBD120000000
  %63 = tail call float @llvm.fmuladd.f32(float %51, float 5.000000e-01, float %62)
  %64 = tail call float @llvm.fmuladd.f32(float %55, float 0xBFB4D0BB60000000, float %63)
  store float %58, ptr %50, align 4, !tbaa !16
  store float %61, ptr %52, align 4, !tbaa !16
  store float %64, ptr %54, align 4, !tbaa !16
  %65 = add nuw nsw i64 %.199, 1
  %exitcond106.not = icmp eq i64 %65, %49
  br i1 %exitcond106.not, label %._crit_edge102, label %.lr.ph101, !llvm.loop !18

._crit_edge102:                                   ; preds = %.lr.ph101, %._crit_edge
  ret void
}